; Function Attrs: null_pointer_is_valid sspstrong uwtable
define internal fastcc i32 @dissect_rsl_ie_smscb_mess(ptr noundef %0, ptr noundef %1, ptr noundef %2, i32 noundef %3) unnamed_addr #0 {
  %5 = alloca ptr, align 8
  call void @llvm.lifetime.start.p0(i64 8, ptr nonnull %5) #6
  %6 = load i32, ptr @ett_ie_smscb_mess, align 4
  %7 = call ptr @proto_tree_add_subtree(ptr noundef %2, ptr noundef %0, i32 noundef %3, i32 noundef 0, i32 noundef %6, ptr noundef nonnull %5, ptr noundef nonnull @.str.785)
  %8 = load i32, ptr @hf_rsl_ie_id, align 4
  %9 = call ptr @proto_tree_add_item(ptr noundef %7, i32 noundef %8, ptr noundef %0, i32 noundef %3, i32 noundef 1, i32 noundef 0)
  %10 = add i32 %3, 1
  %11 = call zeroext i8 @tvb_get_uint8(ptr noundef %0, i32 noundef %10)
  %12 = zext i8 %11 to i32
  %13 = load ptr, ptr %5, align 8
  %14 = add nuw nsw i32 %12, 2
  call void @proto_item_set_len(ptr noundef %13, i32 noundef %14)
  %15 = load i32, ptr @hf_rsl_ie_length, align 4
  %16 = call ptr @proto_tree_add_item(ptr noundef %7, i32 noundef %15, ptr noundef %0, i32 noundef %10, i32 noundef 1, i32 noundef 0)
  %17 = add i32 %3, 2
  %18 = call ptr @tvb_new_subset_length(ptr noundef %0, i32 noundef %17, i32 noundef %12)
  %19 = load ptr, ptr @gsm_cbs_handle, align 8
  %20 = load ptr, ptr @top_tree, align 8
  %21 = call i32 @call_dissector(ptr noundef %19, ptr noundef %18, ptr noundef %1, ptr noundef %20)
  %22 = add i32 %17, %12
  call void @llvm.lifetime.end.p0(i64 8, ptr nonnull %5) #6
  ret i32 %22
}